target datalayout = "e-m:e-p270:32:32-p271:32:32-p272:64:64-i64:64-i128:128-f80:128-n8:16:32:64-S128"
target triple = "x86_64-pc-linux-gnu"

%"class.std::__cxx11::basic_string" = type { %"struct.std::__cxx11::basic_string<char>::_Alloc_hider", i64, %union.anon }
%"struct.std::__cxx11::basic_string<char>::_Alloc_hider" = type { ptr }
%union.anon = type { i64, [8 x i8] }
%"class.std::allocator" = type { i8 }
%"struct.json11_internal_lightgbm::(anonymous namespace)::JsonParser" = type { ptr, i64, i64, ptr, i8, i32 }

@.str.22 = private unnamed_addr constant [24 x i8] c"Unexpected end of input\00", align 1

; Function Attrs: mustprogress nounwind uwtable
define internal noundef signext i8 @_ZN24json11_internal_lightgbm12_GLOBAL__N_110JsonParser4failIcEET_ONSt7__cxx1112basic_stringIcSt11char_traitsIcESaIcEEES3_(ptr noundef nonnull align 8 dereferenceable(40) %0, ptr noundef nonnull align 8 dereferenceable(32) %1, i8 noundef signext %2) #0 align 2 {
  %4 = alloca ptr, align 8
  %5 = alloca ptr, align 8
  %6 = alloca i8, align 1
  store ptr %0, ptr %4, align 8
  store ptr %1, ptr %5, align 8
  store i8 %2, ptr %6, align 1
  %7 = load ptr, ptr %4, align 8
  %8 = getelementptr inbounds %"struct.json11_internal_lightgbm::(anonymous namespace)::JsonParser", ptr %7, i32 0, i32 4
  %9 = load i8, ptr %8, align 8
  %10 = trunc i8 %9 to i1
  br i1 %10, label %16, label %11

11:                                               ; preds = %3
  %12 = load ptr, ptr %5, align 8
  %13 = getelementptr inbounds %"struct.json11_internal_lightgbm::(anonymous namespace)::JsonParser", ptr %7, i32 0, i32 3
  %14 = load ptr, ptr %13, align 8
  %15 = call noundef nonnull align 8 dereferenceable(32) ptr @_ZNSt7__cxx1112basic_stringIcSt11char_traitsIcESaIcEEaSEOS4_(ptr noundef nonnull align 8 dereferenceable(32) %14, ptr noundef nonnull align 8 dereferenceable(32) %12) #5
  br label %16

16:                                               ; preds = %11, %3
  %17 = getelementptr inbounds %"struct.json11_internal_lightgbm::(anonymous namespace)::JsonParser", ptr %7, i32 0, i32 4
  store i8 1, ptr %17, align 8
  %18 = load i8, ptr %6, align 1
  ret i8 %18
}

; Function Attrs: mustprogress uwtable
define internal noundef signext i8 @_ZN24json11_internal_lightgbm12_GLOBAL__N_110JsonParser14get_next_tokenEv(ptr noundef nonnull align 8 dereferenceable(40) %0) #1 align 2 personality ptr @__gxx_personality_v0 {
  %2 = alloca i8, align 1
  %3 = alloca ptr, align 8
  %4 = alloca %"class.std::__cxx11::basic_string", align 8
  %5 = alloca %"class.std::allocator", align 1
  %6 = alloca ptr, align 8
  %7 = alloca i32, align 4
  store ptr %0, ptr %3, align 8
  %8 = load ptr, ptr %3, align 8
  call void @_ZN24json11_internal_lightgbm12_GLOBAL__N_110JsonParser15consume_garbageEv(ptr noundef nonnull align 8 dereferenceable(40) %8)
  %9 = getelementptr inbounds %"struct.json11_internal_lightgbm::(anonymous namespace)::JsonParser", ptr %8, i32 0, i32 4
  %10 = load i8, ptr %9, align 8
  %11 = trunc i8 %10 to i1
  br i1 %11, label %12, label %13

12:                                               ; preds = %1
  store i8 0, ptr %2, align 1
  br label %40

13:                                               ; preds = %1
  %14 = getelementptr inbounds %"struct.json11_internal_lightgbm::(anonymous namespace)::JsonParser", ptr %8, i32 0, i32 2
  %15 = load i64, ptr %14, align 8
  %16 = getelementptr inbounds %"struct.json11_internal_lightgbm::(anonymous namespace)::JsonParser", ptr %8, i32 0, i32 1
  %17 = load i64, ptr %16, align 8
  %18 = icmp eq i64 %15, %17
  br i1 %18, label %19, label %32

19:                                               ; preds = %13
  call void @_ZNSaIcEC1Ev(ptr noundef nonnull align 1 dereferenceable(1) %5) #5
  invoke void @_ZNSt7__cxx1112basic_stringIcSt11char_traitsIcESaIcEEC1EPKcRKS3_(ptr noundef nonnull align 8 dereferenceable(32) %4, ptr noundef @.str.22, ptr noundef nonnull align 1 dereferenceable(1) %5)
          to label %20 unwind label %23

20:                                               ; preds = %19
  %21 = invoke noundef signext i8 @_ZN24json11_internal_lightgbm12_GLOBAL__N_110JsonParser4failIcEET_ONSt7__cxx1112basic_stringIcSt11char_traitsIcESaIcEEES3_(ptr noundef nonnull align 8 dereferenceable(40) %8, ptr noundef nonnull align 8 dereferenceable(32) %4, i8 noundef signext 0)
          to label %22 unwind label %27

22:                                               ; preds = %20
  store i8 %21, ptr %2, align 1
  call void @_ZNSt7__cxx1112basic_stringIcSt11char_traitsIcESaIcEED1Ev(ptr noundef nonnull align 8 dereferenceable(32) %4) #5
  call void @_ZNSaIcED1Ev(ptr noundef nonnull align 1 dereferenceable(1) %5) #5
  br label %40

23:                                               ; preds = %19
  %24 = landingpad { ptr, i32 }
          cleanup
  %25 = extractvalue { ptr, i32 } %24, 0
  store ptr %25, ptr %6, align 8
  %26 = extractvalue { ptr, i32 } %24, 1
  store i32 %26, ptr %7, align 4
  br label %31

27:                                               ; preds = %20
  %28 = landingpad { ptr, i32 }
          cleanup
  %29 = extractvalue { ptr, i32 } %28, 0
  store ptr %29, ptr %6, align 8
  %30 = extractvalue { ptr, i32 } %28, 1
  store i32 %30, ptr %7, align 4
  call void @_ZNSt7__cxx1112basic_stringIcSt11char_traitsIcESaIcEED1Ev(ptr noundef nonnull align 8 dereferenceable(32) %4) #5
  br label %31

31:                                               ; preds = %27, %23
  call void @_ZNSaIcED1Ev(ptr noundef nonnull align 1 dereferenceable(1) %5) #5
  br label %42

32:                                               ; preds = %13
  %33 = getelementptr inbounds %"struct.json11_internal_lightgbm::(anonymous namespace)::JsonParser", ptr %8, i32 0, i32 0
  %34 = load ptr, ptr %33, align 8
  %35 = getelementptr inbounds %"struct.json11_internal_lightgbm::(anonymous namespace)::JsonParser", ptr %8, i32 0, i32 2
  %36 = load i64, ptr %35, align 8
  %37 = add i64 %36, 1
  store i64 %37, ptr %35, align 8
  %38 = getelementptr inbounds i8, ptr %34, i64 %36
  %39 = load i8, ptr %38, align 1
  store i8 %39, ptr %2, align 1
  br label %40

40:                                               ; preds = %32, %22, %12
  %41 = load i8, ptr %2, align 1
  ret i8 %41

42:                                               ; preds = %31
  %43 = load ptr, ptr %6, align 8
  %44 = load i32, ptr %7, align 4
  %45 = insertvalue { ptr, i32 } poison, ptr %43, 0
  %46 = insertvalue { ptr, i32 } %45, i32 %44, 1
  resume { ptr, i32 } %46
}