; Function Attrs: mustprogress uwtable
define internal fastcc noundef signext i8 @_ZN24json11_internal_lightgbm12_GLOBAL__N_110JsonParser14get_next_tokenEv(ptr nocapture noundef nonnull align 8 dereferenceable(40) %0) unnamed_addr #1 align 2 personality ptr @__gxx_personality_v0 {
  %2 = alloca %"class.std::__cxx11::basic_string", align 8
  %3 = alloca %"class.std::allocator", align 1
  tail call fastcc void @_ZN24json11_internal_lightgbm12_GLOBAL__N_110JsonParser15consume_garbageEv(ptr noundef nonnull align 8 dereferenceable(40) %0)
  %4 = getelementptr inbounds i8, ptr %0, i64 32
  %5 = load i8, ptr %4, align 8
  %6 = trunc i8 %5 to i1
  br i1 %6, label %28, label %7

7:                                                ; preds = %1
  %8 = getelementptr inbounds i8, ptr %0, i64 16
  %9 = load i64, ptr %8, align 8
  %10 = getelementptr inbounds i8, ptr %0, i64 8
  %11 = load i64, ptr %10, align 8
  %12 = icmp eq i64 %9, %11
  br i1 %12, label %13, label %23

13:                                               ; preds = %7
  call void @_ZNSaIcEC1Ev(ptr noundef nonnull align 1 dereferenceable(1) %3) #22
  invoke void @_ZNSt7__cxx1112basic_stringIcSt11char_traitsIcESaIcEEC1EPKcRKS3_(ptr noundef nonnull align 8 dereferenceable(32) %2, ptr noundef nonnull @.str.22, ptr noundef nonnull align 1 dereferenceable(1) %3)
          to label %14 unwind label %21

14:                                               ; preds = %13
  %15 = load i8, ptr %4, align 8
  %16 = trunc i8 %15 to i1
  br i1 %16, label %_ZN24json11_internal_lightgbm12_GLOBAL__N_110JsonParser4failIcEET_ONSt7__cxx1112basic_stringIcSt11char_traitsIcESaIcEEES3_.exit, label %17

17:                                               ; preds = %14
  %18 = getelementptr inbounds i8, ptr %0, i64 24
  %19 = load ptr, ptr %18, align 8
  %20 = call noundef nonnull align 8 dereferenceable(32) ptr @_ZNSt7__cxx1112basic_stringIcSt11char_traitsIcESaIcEEaSEOS4_(ptr noundef nonnull align 8 dereferenceable(32) %19, ptr noundef nonnull align 8 dereferenceable(32) %2) #22
  br label %_ZN24json11_internal_lightgbm12_GLOBAL__N_110JsonParser4failIcEET_ONSt7__cxx1112basic_stringIcSt11char_traitsIcESaIcEEES3_.exit

_ZN24json11_internal_lightgbm12_GLOBAL__N_110JsonParser4failIcEET_ONSt7__cxx1112basic_stringIcSt11char_traitsIcESaIcEEES3_.exit: ; preds = %14, %17
  store i8 1, ptr %4, align 8
  call void @_ZNSt7__cxx1112basic_stringIcSt11char_traitsIcESaIcEED1Ev(ptr noundef nonnull align 8 dereferenceable(32) %2) #22
  call void @_ZNSaIcED1Ev(ptr noundef nonnull align 1 dereferenceable(1) %3) #22
  br label %28

21:                                               ; preds = %13
  %22 = landingpad { ptr, i32 }
          cleanup
  call void @_ZNSaIcED1Ev(ptr noundef nonnull align 1 dereferenceable(1) %3) #22
  resume { ptr, i32 } %22

23:                                               ; preds = %7
  %24 = load ptr, ptr %0, align 8
  %25 = add i64 %9, 1
  store i64 %25, ptr %8, align 8
  %26 = getelementptr inbounds i8, ptr %24, i64 %9
  %27 = load i8, ptr %26, align 1
  br label %28

28:                                               ; preds = %1, %23, %_ZN24json11_internal_lightgbm12_GLOBAL__N_110JsonParser4failIcEET_ONSt7__cxx1112basic_stringIcSt11char_traitsIcESaIcEEES3_.exit
  %.0 = phi i8 [ 0, %_ZN24json11_internal_lightgbm12_GLOBAL__N_110JsonParser4failIcEET_ONSt7__cxx1112basic_stringIcSt11char_traitsIcESaIcEEES3_.exit ], [ %27, %23 ], [ 0, %1 ]
  ret i8 %.0
}